target datalayout = "e-m:e-p270:32:32-p271:32:32-p272:64:64-i64:64-i128:128-f80:128-n8:16:32:64-S128"
target triple = "x86_64-pc-linux-gnu"

%struct.H5G_loc_t = type { ptr, ptr }
%struct.H5G_trav_slink_t = type { i8, ptr, i8 }

@H5G_init_g = external global i8, align 1
@H5_libterm_g = external global i8, align 1
@.str = private unnamed_addr constant [105 x i8] c"generated/home/dtcxzyw/WorkSpace/Projects/compilers/llvm-opt-benchmark/bench/hdf5/hdf5/src/H5Gtraverse.c\00", align 1
@H5E_SYM_g = external global i64, align 8
@H5E_NOTFOUND_g = external global i64, align 8
@__func__.H5G__traverse_slink_cb = private unnamed_addr constant [23 x i8] c"H5G__traverse_slink_cb\00", align 1
@.str.15 = private unnamed_addr constant [20 x i8] c"component not found\00", align 1

; Function Attrs: nounwind uwtable
define internal i32 @H5G__traverse_slink_cb(ptr noundef %0, ptr noundef %1, ptr noundef %2, ptr noundef %3, ptr noundef %4, ptr noundef %5) #0 {
  %7 = alloca ptr, align 8
  %8 = alloca ptr, align 8
  %9 = alloca ptr, align 8
  %10 = alloca ptr, align 8
  %11 = alloca ptr, align 8
  %12 = alloca ptr, align 8
  %13 = alloca ptr, align 8
  %14 = alloca i32, align 4
  %15 = alloca i8, align 1
  store ptr %0, ptr %7, align 8, !tbaa !3
  store ptr %1, ptr %8, align 8, !tbaa !45
  store ptr %2, ptr %9, align 8, !tbaa !8
  store ptr %3, ptr %10, align 8, !tbaa !3
  store ptr %4, ptr %11, align 8, !tbaa !38
  store ptr %5, ptr %12, align 8, !tbaa !65
  call void @llvm.lifetime.start.p0(i64 8, ptr %13) #7
  %16 = load ptr, ptr %11, align 8, !tbaa !38
  store ptr %16, ptr %13, align 8, !tbaa !38
  call void @llvm.lifetime.start.p0(i64 4, ptr %14) #7
  store i32 0, ptr %14, align 4, !tbaa !10
  call void @llvm.lifetime.start.p0(i64 1, ptr %15) #7
  store i8 0, ptr %15, align 1, !tbaa !12
  %17 = load i8, ptr @H5G_init_g, align 1, !tbaa !12, !range !16, !noundef !17
  %18 = trunc i8 %17 to i1
  br i1 %18, label %23, label %19

19:                                               ; preds = %6
  %20 = load i8, ptr @H5_libterm_g, align 1, !tbaa !12, !range !16, !noundef !17
  %21 = trunc i8 %20 to i1
  %22 = xor i1 %21, true
  br label %23

23:                                               ; preds = %19, %6
  %24 = phi i1 [ true, %6 ], [ %22, %19 ]
  %25 = xor i1 %24, true
  %26 = xor i1 %25, true
  %27 = zext i1 %26 to i32
  %28 = sext i32 %27 to i64
  %29 = call i64 @llvm.expect.i64(i64 %28, i64 1)
  %30 = icmp ne i64 %29, 0
  br i1 %30, label %31, label %77

31:                                               ; preds = %23
  %32 = load ptr, ptr %10, align 8, !tbaa !3
  %33 = icmp eq ptr %32, null
  br i1 %33, label %34, label %62

34:                                               ; preds = %31
  %35 = load ptr, ptr %13, align 8, !tbaa !38
  %36 = getelementptr inbounds nuw %struct.H5G_trav_slink_t, ptr %35, i32 0, i32 0
  %37 = load i8, ptr %36, align 8, !tbaa !33, !range !16, !noundef !17
  %38 = trunc i8 %37 to i1
  br i1 %38, label %39, label %42

39:                                               ; preds = %34
  %40 = load ptr, ptr %13, align 8, !tbaa !38
  %41 = getelementptr inbounds nuw %struct.H5G_trav_slink_t, ptr %40, i32 0, i32 2
  store i8 0, ptr %41, align 8, !tbaa !35
  br label %61

42:                                               ; preds = %34
  br label %43

43:                                               ; preds = %42
  br label %44

44:                                               ; preds = %43
  br label %45

45:                                               ; preds = %44
  %46 = load i64, ptr @H5E_SYM_g, align 8, !tbaa !22
  %47 = load i64, ptr @H5E_NOTFOUND_g, align 8, !tbaa !22
  %48 = call i32 (ptr, ptr, i32, i64, i64, ptr, ...) @H5E_printf_stack(ptr noundef @.str, ptr noundef @__func__.H5G__traverse_slink_cb, i32 noundef 115, i64 noundef %46, i64 noundef %47, ptr noundef @.str.15)
  br label %49

49:                                               ; preds = %45
  br label %50

50:                                               ; preds = %49
  store i8 1, ptr %15, align 1, !tbaa !12
  %51 = load i8, ptr %15, align 1, !tbaa !12, !range !16, !noundef !17
  %52 = trunc i8 %51 to i1
  %53 = zext i1 %52 to i8
  store i8 %53, ptr %15, align 1, !tbaa !12
  br label %54

54:                                               ; preds = %50
  br label %55

55:                                               ; preds = %54
  br label %56

56:                                               ; preds = %55
  store i32 -1, ptr %14, align 4, !tbaa !10
  br label %75

57:                                               ; No predecessors!
  br label %58

58:                                               ; preds = %57
  br label %59

59:                                               ; preds = %58
  br label %60

60:                                               ; preds = %59
  br label %61

61:                                               ; preds = %60, %39
  br label %74

62:                                               ; preds = %31
  %63 = load ptr, ptr %13, align 8, !tbaa !38
  %64 = getelementptr inbounds nuw %struct.H5G_trav_slink_t, ptr %63, i32 0, i32 1
  %65 = load ptr, ptr %64, align 8, !tbaa !36
  %66 = getelementptr inbounds nuw %struct.H5G_loc_t, ptr %65, i32 0, i32 0
  %67 = load ptr, ptr %66, align 8, !tbaa !23
  %68 = load ptr, ptr %10, align 8, !tbaa !3
  %69 = getelementptr inbounds nuw %struct.H5G_loc_t, ptr %68, i32 0, i32 0
  %70 = load ptr, ptr %69, align 8, !tbaa !23
  %71 = call i32 @H5O_loc_copy_deep(ptr noundef %67, ptr noundef %70)
  %72 = load ptr, ptr %13, align 8, !tbaa !38
  %73 = getelementptr inbounds nuw %struct.H5G_trav_slink_t, ptr %72, i32 0, i32 2
  store i8 1, ptr %73, align 8, !tbaa !35
  br label %74

74:                                               ; preds = %62, %61
  br label %75

75:                                               ; preds = %74, %56
  %76 = load ptr, ptr %12, align 8, !tbaa !65
  store i32 0, ptr %76, align 4, !tbaa !10
  br label %77

77:                                               ; preds = %75, %23
  %78 = load i32, ptr %14, align 4, !tbaa !10
  call void @llvm.lifetime.end.p0(i64 1, ptr %15) #7
  call void @llvm.lifetime.end.p0(i64 4, ptr %14) #7
  call void @llvm.lifetime.end.p0(i64 8, ptr %13) #7
  ret i32 %78
}