; Function Attrs: nounwind uwtable
define internal range(i32 -1, 1) i32 @H5G__traverse_slink_cb(ptr readnone captures(none) %0, ptr readnone captures(none) %1, ptr readnone captures(none) %2, ptr noundef readonly captures(address_is_null) %3, ptr noundef captures(none) %4, ptr noundef writeonly captures(none) %5) #0 {
  %7 = load i8, ptr @H5G_init_g, align 1, !tbaa !3, !range !7, !noundef !8
  %8 = trunc nuw i8 %7 to i1
  %9 = load i8, ptr @H5_libterm_g, align 1, !range !7
  %10 = trunc nuw i8 %9 to i1
  %11 = xor i1 %10, true
  %12 = select i1 %8, i1 true, i1 %11
  br i1 %12, label %13, label %32, !prof !9

13:                                               ; preds = %6
  %14 = icmp eq ptr %3, null
  br i1 %14, label %15, label %24

15:                                               ; preds = %13
  %16 = load i8, ptr %4, align 8, !tbaa !22, !range !7, !noundef !8
  %17 = trunc nuw i8 %16 to i1
  br i1 %17, label %18, label %20

18:                                               ; preds = %15
  %19 = getelementptr inbounds nuw i8, ptr %4, i64 16
  store i8 0, ptr %19, align 8, !tbaa !25
  br label %31

20:                                               ; preds = %15
  %21 = load i64, ptr @H5E_SYM_g, align 8, !tbaa !16
  %22 = load i64, ptr @H5E_NOTFOUND_g, align 8, !tbaa !16
  %23 = tail call i32 (ptr, ptr, i32, i64, i64, ptr, ...) @H5E_printf_stack(ptr noundef nonnull @.str, ptr noundef nonnull @__func__.H5G__traverse_slink_cb, i32 noundef 115, i64 noundef %21, i64 noundef %22, ptr noundef nonnull @.str.15) #6
  br label %31

24:                                               ; preds = %13
  %25 = getelementptr inbounds nuw i8, ptr %4, i64 8
  %26 = load ptr, ptr %25, align 8, !tbaa !26
  %27 = load ptr, ptr %26, align 8, !tbaa !17
  %28 = load ptr, ptr %3, align 8, !tbaa !17
  %29 = tail call i32 @H5O_loc_copy_deep(ptr noundef %27, ptr noundef %28) #6
  %30 = getelementptr inbounds nuw i8, ptr %4, i64 16
  store i8 1, ptr %30, align 8, !tbaa !25
  br label %31

31:                                               ; preds = %18, %24, %20
  %.1 = phi i32 [ 0, %18 ], [ -1, %20 ], [ 0, %24 ]
  store i32 0, ptr %5, align 4, !tbaa !37
  br label %32

32:                                               ; preds = %31, %6
  %.0 = phi i32 [ %.1, %31 ], [ 0, %6 ]
  ret i32 %.0
}